; Function Attrs: mustprogress nounwind uwtable
define hidden void @_ZN22ZPhysicalMemoryManager5allocER15ZPhysicalMemorym(ptr noundef nonnull align 8 dereferenceable(160) %0, ptr noundef nonnull align 8 dereferenceable(16) %1, i64 noundef %2) local_unnamed_addr #1 align 2 {
  %4 = alloca i64, align 8
  %5 = alloca %class.ZPhysicalMemorySegment, align 8
  %.not5 = icmp eq i64 %2, 0
  br i1 %.not5, label %._crit_edge, label %.lr.ph

.lr.ph:                                           ; preds = %3
  %6 = getelementptr inbounds i8, ptr %0, i64 48
  %7 = getelementptr inbounds i8, ptr %5, i64 8
  %8 = getelementptr inbounds i8, ptr %5, i64 16
  br label %9

9:                                                ; preds = %.lr.ph, %9
  %.06 = phi i64 [ %2, %.lr.ph ], [ %14, %9 ]
  store i64 0, ptr %4, align 8
  %10 = call noundef i64 @_ZN14ZMemoryManager25alloc_low_address_at_mostEmPm(ptr noundef nonnull align 8 dereferenceable(112) %6, i64 noundef %.06, ptr noundef nonnull %4) #12
  %11 = load i64, ptr %4, align 8
  store i64 %10, ptr %5, align 8
  %12 = add i64 %11, %10
  store i64 %12, ptr %7, align 8
  store i8 0, ptr %8, align 8
  call void @_ZN15ZPhysicalMemory11add_segmentERK22ZPhysicalMemorySegment(ptr noundef nonnull align 8 dereferenceable(16) %1, ptr noundef nonnull align 8 dereferenceable(17) %5)
  %13 = load i64, ptr %4, align 8
  %14 = sub i64 %.06, %13
  %.not = icmp eq i64 %14, 0
  br i1 %.not, label %._crit_edge, label %9, !llvm.loop !18

._crit_edge:                                      ; preds = %9, %3
  ret void
}